Certificate:
    Data:
        Version: 3 (0x2)
        Serial Number: 4097 (0x1001)
    Signature Algorithm: ecdsa-with-SHA256
        Issuer: C=US, ST=California, L=San Jose, O=Arlo Technologies, Inc., OU=IT, CN=Arlo HomeKit Prod RCA
        Validity
            Not Before: Apr  3 06:23:05 2019 GMT
            Not After : Mar 27 06:23:05 2044 GMT
        Subject: C=US, ST=California, O=Arlo Technologies, Inc., OU=IT, CN=Arlo HomeKit Prod Client ICA
        Subject Public Key Info:
            Public Key Algorithm: id-ecPublicKey
                Public-Key: (256 bit)
                pub: 
                    04:27:31:25:eb:d9:83:34:58:2a:f1:3f:fe:a3:3c:
                    0d:8f:92:2d:74:4a:12:48:e8:44:db:81:94:65:70:
                    b6:cc:76:8a:39:c2:1c:d0:9b:65:5f:9a:13:92:11:
                    3c:20:83:c1:6d:de:3d:88:a0:0a:06:7b:14:ed:04:
                    75:cb:70:2b:83
                ASN1 OID: prime256v1
        X509v3 extensions:
            X509v3 Subject Key Identifier: 
                B5:46:C3:CC:9B:B1:F9:0D:40:24:2F:8E:66:5C:3A:3E:3B:C0:C2:81
            X509v3 Authority Key Identifier: 
                keyid:55:41:7B:55:5C:C5:A3:B4:D1:A5:5E:8F:CC:DE:7E:9E:66:7E:CF:CF

            X509v3 Basic Constraints: critical
                CA:TRUE, pathlen:0
            X509v3 Key Usage: critical
                Digital Signature, Certificate Sign, CRL Sign
    Signature Algorithm: ecdsa-with-SHA256
         30:46:02:21:00:bd:84:42:ed:0a:2e:31:19:ce:b1:56:ac:37:
         61:e6:30:b5:81:91:f6:a8:2d:26:49:82:10:85:d0:fa:d1:6e:
         6d:02:21:00:ae:3b:86:fb:ed:4c:9d:d3:74:a9:79:30:ea:bf:
         c8:e7:16:9f:2c:fe:ac:2a:10:3c:dc:e9:97:04:84:06:2f:4d
-----BEGIN CERTIFICATE-----
MIICVDCCAfmgAwIBAgICEAEwCgYIKoZIzj0EAwIwgYQxCzAJBgNVBAYTAlVTMRMw
EQYDVQQIDApDYWxpZm9ybmlhMREwDwYDVQQHDAhTYW4gSm9zZTEgMB4GA1UECgwX
QXJsbyBUZWNobm9sb2dpZXMsIEluYy4xCzAJBgNVBAsMAklUMR4wHAYDVQQDDBVB
cmxvIEhvbWVLaXQgUHJvZCBSQ0EwHhcNMTkwNDAzMDYyMzA1WhcNNDQwMzI3MDYy
MzA1WjB4MQswCQYDVQQGEwJVUzETMBEGA1UECAwKQ2FsaWZvcm5pYTEgMB4GA1UE
CgwXQXJsbyBUZWNobm9sb2dpZXMsIEluYy4xCzAJBgNVBAsMAklUMSUwIwYDVQQD
DBxBcmxvIEhvbWVLaXQgUHJvZCBDbGllbnQgSUNBMFkwEwYHKoZIzj0CAQYIKoZI
zj0DAQcDQgAEJzEl69mDNFgq8T/+ozwNj5ItdEoSSOhE24GUZXC2zHaKOcIc0Jtl
X5oTkhE8IIPBbd49iKAKBnsU7QR1y3Arg6NmMGQwHQYDVR0OBBYEFLVGw8ybsfkN
QCQvjmZcOj47wMKBMB8GA1UdIwQYMBaAFFVBe1VcxaO00aVej8zefp5mfs/PMBIG
A1UdEwEB/wQIMAYBAf8CAQAwDgYDVR0PAQH/BAQDAgGGMAoGCCqGSM49BAMCA0kA
MEYCIQC9hELtCi4xGc6xVqw3YeYwtYGR9qgtJkmCEIXQ+tFubQIhAK47hvvtTJ3T
dKl5MOq/yOcWnyz+rCoQPNzplwSEBi9N
-----END CERTIFICATE-----
-----BEGIN CERTIFICATE-----
MIIB5TCCAYsCCQDVbbWoJXPo/jAKBggqhkjOPQQDAjB4MQswCQYDVQQGEwJVUzET
MBEGA1UECAwKQ2FsaWZvcm5pYTEgMB4GA1UECgwXQXJsbyBUZWNobm9sb2dpZXMs
IEluYy4xCzAJBgNVBAsMAklUMSUwIwYDVQQDDBxBcmxvIEhvbWVLaXQgUHJvZCBD
bGllbnQgSUNBMB4XDTE5MDQwMzA2NDkwOVoXDTIwMDQwMjA2NDkwOVowfTELMAkG
A1UEBhMCVVMxEzARBgNVBAgMCkNhbGlmb3JuaWExETAPBgNVBAcMCFNhbiBKb3Nl
MSAwHgYDVQQKDBdBcmxvIFRlY2hub2xvZ2llcywgSW5jLjELMAkGA1UECwwCSVQx
FzAVBgNVBAMMDkFybG8tUHJvZC1UZXN0MFkwEwYHKoZIzj0CAQYIKoZIzj0DAQcD
QgAEEHxAbkrQ0YjRqakwmkRwtOPynA2w1PaLQdZY24P7z6qtkGWyQ3glVTZidDNs
ZlPnTd8kldiNNtxfpAOIiHMgjjAKBggqhkjOPQQDAgNIADBFAiEAtj7mE2Z/n7lT
RnhkXGE+cXwrDg496Cw6nMQD9b/z5l4CIGoXXFA8eNbYMmjZB+joPIH9DqZtqu59
DiBESVkbx6ED
-----END CERTIFICATE-----
